target datalayout = "e-m:e-p270:32:32-p271:32:32-p272:64:64-i64:64-i128:128-f80:128-n8:16:32:64-S128"
target triple = "x86_64-pc-linux-gnu"

%struct.in6_addr = type { %union.anon.6 }
%union.anon.6 = type { [4 x i32] }
%struct.uv_udp_s = type { ptr, ptr, i32, ptr, %struct.uv__queue, %union.anon, ptr, i32, i64, i64, ptr, ptr, %struct.uv__io_s, %struct.uv__queue, %struct.uv__queue }
%union.anon = type { [4 x ptr] }
%struct.uv__io_s = type { ptr, %struct.uv__queue, %struct.uv__queue, i32, i32, i32 }
%struct.uv__queue = type { ptr, ptr }
%union.uv__sockaddr = type { %struct.sockaddr_in6 }
%struct.sockaddr_in6 = type { i16, i16, i32, %struct.in6_addr, i32 }
%struct.sockaddr_in = type { i16, i16, %struct.in_addr, [8 x i8] }
%struct.in_addr = type { i32 }
%struct.ip_mreq = type { %struct.in_addr, %struct.in_addr }
%struct.ipv6_mreq = type { %struct.in6_addr, i32 }

@in6addr_any = external constant %struct.in6_addr, align 4

; Function Attrs: inlinehint nounwind uwtable
define internal i32 @__bswap_32(i32 noundef %0) #3 {
  %2 = alloca i32, align 4
  store i32 %0, ptr %2, align 4
  %3 = load i32, ptr %2, align 4
  %4 = and i32 %3, -16777216
  %5 = lshr i32 %4, 24
  %6 = load i32, ptr %2, align 4
  %7 = and i32 %6, 16711680
  %8 = lshr i32 %7, 8
  %9 = or i32 %5, %8
  %10 = load i32, ptr %2, align 4
  %11 = and i32 %10, 65280
  %12 = shl i32 %11, 8
  %13 = or i32 %9, %12
  %14 = load i32, ptr %2, align 4
  %15 = and i32 %14, 255
  %16 = shl i32 %15, 24
  %17 = or i32 %13, %16
  ret i32 %17
}

; Function Attrs: nounwind uwtable
define internal i32 @uv__udp_set_membership6(ptr noundef %0, ptr noundef %1, ptr noundef %2, i32 noundef %3) #0 {
  %5 = alloca i32, align 4
  %6 = alloca ptr, align 8
  %7 = alloca ptr, align 8
  %8 = alloca ptr, align 8
  %9 = alloca i32, align 4
  %10 = alloca i32, align 4
  %11 = alloca %struct.ipv6_mreq, align 4
  %12 = alloca %struct.sockaddr_in6, align 4
  %13 = alloca i32, align 4
  store ptr %0, ptr %6, align 8
  store ptr %1, ptr %7, align 8
  store ptr %2, ptr %8, align 8
  store i32 %3, ptr %9, align 4
  call void @llvm.lifetime.start.p0(i64 4, ptr %10) #10
  call void @llvm.lifetime.start.p0(i64 20, ptr %11) #10
  call void @llvm.lifetime.start.p0(i64 28, ptr %12) #10
  call void @llvm.memset.p0.i64(ptr align 4 %11, i8 0, i64 20, i1 false)
  %14 = load ptr, ptr %8, align 8
  %15 = icmp ne ptr %14, null
  br i1 %15, label %16, label %25

16:                                               ; preds = %4
  %17 = load ptr, ptr %8, align 8
  %18 = call i32 @uv_ip6_addr(ptr noundef %17, i32 noundef 0, ptr noundef %12)
  %19 = icmp ne i32 %18, 0
  br i1 %19, label %20, label %21

20:                                               ; preds = %16
  store i32 -22, ptr %5, align 4
  store i32 1, ptr %13, align 4
  br label %48

21:                                               ; preds = %16
  %22 = getelementptr inbounds nuw %struct.sockaddr_in6, ptr %12, i32 0, i32 4
  %23 = load i32, ptr %22, align 4
  %24 = getelementptr inbounds nuw %struct.ipv6_mreq, ptr %11, i32 0, i32 1
  store i32 %23, ptr %24, align 4
  br label %27

25:                                               ; preds = %4
  %26 = getelementptr inbounds nuw %struct.ipv6_mreq, ptr %11, i32 0, i32 1
  store i32 0, ptr %26, align 4
  br label %27

27:                                               ; preds = %25, %21
  %28 = getelementptr inbounds nuw %struct.ipv6_mreq, ptr %11, i32 0, i32 0
  %29 = load ptr, ptr %7, align 8
  %30 = getelementptr inbounds nuw %struct.sockaddr_in6, ptr %29, i32 0, i32 3
  call void @llvm.memcpy.p0.p0.i64(ptr align 4 %28, ptr align 4 %30, i64 16, i1 false)
  %31 = load i32, ptr %9, align 4
  switch i32 %31, label %34 [
    i32 1, label %32
    i32 0, label %33
  ]

32:                                               ; preds = %27
  store i32 20, ptr %10, align 4
  br label %35

33:                                               ; preds = %27
  store i32 21, ptr %10, align 4
  br label %35

34:                                               ; preds = %27
  store i32 -22, ptr %5, align 4
  store i32 1, ptr %13, align 4
  br label %48

35:                                               ; preds = %33, %32
  %36 = load ptr, ptr %6, align 8
  %37 = getelementptr inbounds nuw %struct.uv_udp_s, ptr %36, i32 0, i32 12
  %38 = getelementptr inbounds nuw %struct.uv__io_s, ptr %37, i32 0, i32 5
  %39 = load i32, ptr %38, align 8
  %40 = load i32, ptr %10, align 4
  %41 = call i32 @setsockopt(i32 noundef %39, i32 noundef 41, i32 noundef %40, ptr noundef %11, i32 noundef 20) #10
  %42 = icmp ne i32 %41, 0
  br i1 %42, label %43, label %47

43:                                               ; preds = %35
  %44 = call ptr @__errno_location() #11
  %45 = load i32, ptr %44, align 4
  %46 = sub nsw i32 0, %45
  store i32 %46, ptr %5, align 4
  store i32 1, ptr %13, align 4
  br label %48

47:                                               ; preds = %35
  store i32 0, ptr %5, align 4
  store i32 1, ptr %13, align 4
  br label %48

48:                                               ; preds = %47, %43, %34, %20
  call void @llvm.lifetime.end.p0(i64 28, ptr %12) #10
  call void @llvm.lifetime.end.p0(i64 20, ptr %11) #10
  call void @llvm.lifetime.end.p0(i64 4, ptr %10) #10
  %49 = load i32, ptr %5, align 4
  ret i32 %49
}

; Function Attrs: nounwind uwtable
define internal i32 @uv__udp_set_membership4(ptr noundef %0, ptr noundef %1, ptr noundef %2, i32 noundef %3) #0 {
  %5 = alloca i32, align 4
  %6 = alloca ptr, align 8
  %7 = alloca ptr, align 8
  %8 = alloca ptr, align 8
  %9 = alloca i32, align 4
  %10 = alloca %struct.ip_mreq, align 4
  %11 = alloca i32, align 4
  %12 = alloca i32, align 4
  %13 = alloca i32, align 4
  store ptr %0, ptr %6, align 8
  store ptr %1, ptr %7, align 8
  store ptr %2, ptr %8, align 8
  store i32 %3, ptr %9, align 4
  call void @llvm.lifetime.start.p0(i64 8, ptr %10) #10
  call void @llvm.lifetime.start.p0(i64 4, ptr %11) #10
  call void @llvm.lifetime.start.p0(i64 4, ptr %12) #10
  call void @llvm.memset.p0.i64(ptr align 4 %10, i8 0, i64 8, i1 false)
  %14 = load ptr, ptr %8, align 8
  %15 = icmp ne ptr %14, null
  br i1 %15, label %16, label %26

16:                                               ; preds = %4
  %17 = load ptr, ptr %8, align 8
  %18 = getelementptr inbounds nuw %struct.ip_mreq, ptr %10, i32 0, i32 1
  %19 = getelementptr inbounds nuw %struct.in_addr, ptr %18, i32 0, i32 0
  %20 = call i32 @uv_inet_pton(i32 noundef 2, ptr noundef %17, ptr noundef %19)
  store i32 %20, ptr %12, align 4
  %21 = load i32, ptr %12, align 4
  %22 = icmp ne i32 %21, 0
  br i1 %22, label %23, label %25

23:                                               ; preds = %16
  %24 = load i32, ptr %12, align 4
  store i32 %24, ptr %5, align 4
  store i32 1, ptr %13, align 4
  br label %54

25:                                               ; preds = %16
  br label %30

26:                                               ; preds = %4
  %27 = call i32 @__bswap_32(i32 noundef 0)
  %28 = getelementptr inbounds nuw %struct.ip_mreq, ptr %10, i32 0, i32 1
  %29 = getelementptr inbounds nuw %struct.in_addr, ptr %28, i32 0, i32 0
  store i32 %27, ptr %29, align 4
  br label %30

30:                                               ; preds = %26, %25
  %31 = load ptr, ptr %7, align 8
  %32 = getelementptr inbounds nuw %struct.sockaddr_in, ptr %31, i32 0, i32 2
  %33 = getelementptr inbounds nuw %struct.in_addr, ptr %32, i32 0, i32 0
  %34 = load i32, ptr %33, align 4
  %35 = getelementptr inbounds nuw %struct.ip_mreq, ptr %10, i32 0, i32 0
  %36 = getelementptr inbounds nuw %struct.in_addr, ptr %35, i32 0, i32 0
  store i32 %34, ptr %36, align 4
  %37 = load i32, ptr %9, align 4
  switch i32 %37, label %40 [
    i32 1, label %38
    i32 0, label %39
  ]

38:                                               ; preds = %30
  store i32 35, ptr %11, align 4
  br label %41

39:                                               ; preds = %30
  store i32 36, ptr %11, align 4
  br label %41

40:                                               ; preds = %30
  store i32 -22, ptr %5, align 4
  store i32 1, ptr %13, align 4
  br label %54

41:                                               ; preds = %39, %38
  %42 = load ptr, ptr %6, align 8
  %43 = getelementptr inbounds nuw %struct.uv_udp_s, ptr %42, i32 0, i32 12
  %44 = getelementptr inbounds nuw %struct.uv__io_s, ptr %43, i32 0, i32 5
  %45 = load i32, ptr %44, align 8
  %46 = load i32, ptr %11, align 4
  %47 = call i32 @setsockopt(i32 noundef %45, i32 noundef 0, i32 noundef %46, ptr noundef %10, i32 noundef 8) #10
  %48 = icmp ne i32 %47, 0
  br i1 %48, label %49, label %53

49:                                               ; preds = %41
  %50 = call ptr @__errno_location() #11
  %51 = load i32, ptr %50, align 4
  %52 = sub nsw i32 0, %51
  store i32 %52, ptr %5, align 4
  store i32 1, ptr %13, align 4
  br label %54

53:                                               ; preds = %41
  store i32 0, ptr %5, align 4
  store i32 1, ptr %13, align 4
  br label %54

54:                                               ; preds = %53, %49, %40, %23
  call void @llvm.lifetime.end.p0(i64 4, ptr %12) #10
  call void @llvm.lifetime.end.p0(i64 4, ptr %11) #10
  call void @llvm.lifetime.end.p0(i64 8, ptr %10) #10
  %55 = load i32, ptr %5, align 4
  ret i32 %55
}

; Function Attrs: nounwind uwtable
define internal i32 @uv__udp_maybe_deferred_bind(ptr noundef %0, i32 noundef %1, i32 noundef %2) #0 {
  %4 = alloca i32, align 4
  %5 = alloca ptr, align 8
  %6 = alloca i32, align 4
  %7 = alloca i32, align 4
  %8 = alloca %union.uv__sockaddr, align 4
  %9 = alloca i32, align 4
  %10 = alloca i32, align 4
  %11 = alloca ptr, align 8
  %12 = alloca ptr, align 8
  store ptr %0, ptr %5, align 8
  store i32 %1, ptr %6, align 4
  store i32 %2, ptr %7, align 4
  call void @llvm.lifetime.start.p0(i64 28, ptr %8) #10
  call void @llvm.lifetime.start.p0(i64 4, ptr %9) #10
  %13 = load ptr, ptr %5, align 8
  %14 = getelementptr inbounds nuw %struct.uv_udp_s, ptr %13, i32 0, i32 12
  %15 = getelementptr inbounds nuw %struct.uv__io_s, ptr %14, i32 0, i32 5
  %16 = load i32, ptr %15, align 8
  %17 = icmp ne i32 %16, -1
  br i1 %17, label %18, label %19

18:                                               ; preds = %3
  store i32 0, ptr %4, align 4
  store i32 1, ptr %10, align 4
  br label %40

19:                                               ; preds = %3
  %20 = load i32, ptr %6, align 4
  switch i32 %20, label %34 [
    i32 2, label %21
    i32 10, label %28
  ]

21:                                               ; preds = %19
  call void @llvm.lifetime.start.p0(i64 8, ptr %11) #10
  store ptr %8, ptr %11, align 8
  %22 = load ptr, ptr %11, align 8
  call void @llvm.memset.p0.i64(ptr align 4 %22, i8 0, i64 16, i1 false)
  %23 = load ptr, ptr %11, align 8
  %24 = getelementptr inbounds nuw %struct.sockaddr_in, ptr %23, i32 0, i32 0
  store i16 2, ptr %24, align 4
  %25 = load ptr, ptr %11, align 8
  %26 = getelementptr inbounds nuw %struct.sockaddr_in, ptr %25, i32 0, i32 2
  %27 = getelementptr inbounds nuw %struct.in_addr, ptr %26, i32 0, i32 0
  store i32 0, ptr %27, align 4
  store i32 16, ptr %9, align 4
  store i32 2, ptr %10, align 4
  call void @llvm.lifetime.end.p0(i64 8, ptr %11) #10
  br label %35

28:                                               ; preds = %19
  call void @llvm.lifetime.start.p0(i64 8, ptr %12) #10
  store ptr %8, ptr %12, align 8
  %29 = load ptr, ptr %12, align 8
  call void @llvm.memset.p0.i64(ptr align 4 %29, i8 0, i64 28, i1 false)
  %30 = load ptr, ptr %12, align 8
  %31 = getelementptr inbounds nuw %struct.sockaddr_in6, ptr %30, i32 0, i32 0
  store i16 10, ptr %31, align 4
  %32 = load ptr, ptr %12, align 8
  %33 = getelementptr inbounds nuw %struct.sockaddr_in6, ptr %32, i32 0, i32 3
  call void @llvm.memcpy.p0.p0.i64(ptr align 4 %33, ptr align 4 @in6addr_any, i64 16, i1 false)
  store i32 28, ptr %9, align 4
  store i32 2, ptr %10, align 4
  call void @llvm.lifetime.end.p0(i64 8, ptr %12) #10
  br label %35

34:                                               ; preds = %19
  call void @abort() #12
  unreachable

35:                                               ; preds = %28, %21
  %36 = load ptr, ptr %5, align 8
  %37 = load i32, ptr %9, align 4
  %38 = load i32, ptr %7, align 4
  %39 = call i32 @uv__udp_bind(ptr noundef %36, ptr noundef %8, i32 noundef %37, i32 noundef %38)
  store i32 %39, ptr %4, align 4
  store i32 1, ptr %10, align 4
  br label %40

40:                                               ; preds = %35, %18
  call void @llvm.lifetime.end.p0(i64 4, ptr %9) #10
  call void @llvm.lifetime.end.p0(i64 28, ptr %8) #10
  %41 = load i32, ptr %4, align 4
  ret i32 %41
}

; Function Attrs: nounwind uwtable
define dso_local i32 @uv_udp_set_membership(ptr noundef %0, ptr noundef %1, ptr noundef %2, i32 noundef %3) #0 {
  %5 = alloca i32, align 4
  %6 = alloca ptr, align 8
  %7 = alloca ptr, align 8
  %8 = alloca ptr, align 8
  %9 = alloca i32, align 4
  %10 = alloca i32, align 4
  %11 = alloca %struct.sockaddr_in, align 4
  %12 = alloca %struct.sockaddr_in6, align 4
  %13 = alloca i32, align 4
  store ptr %0, ptr %6, align 8
  store ptr %1, ptr %7, align 8
  store ptr %2, ptr %8, align 8
  store i32 %3, ptr %9, align 4
  call void @llvm.lifetime.start.p0(i64 4, ptr %10) #10
  call void @llvm.lifetime.start.p0(i64 16, ptr %11) #10
  call void @llvm.lifetime.start.p0(i64 28, ptr %12) #10
  %14 = load ptr, ptr %7, align 8
  %15 = call i32 @uv_ip4_addr(ptr noundef %14, i32 noundef 0, ptr noundef %11)
  %16 = icmp eq i32 %15, 0
  br i1 %16, label %17, label %29

17:                                               ; preds = %4
  %18 = load ptr, ptr %6, align 8
  %19 = call i32 @uv__udp_maybe_deferred_bind(ptr noundef %18, i32 noundef 2, i32 noundef 4)
  store i32 %19, ptr %10, align 4
  %20 = load i32, ptr %10, align 4
  %21 = icmp ne i32 %20, 0
  br i1 %21, label %22, label %24

22:                                               ; preds = %17
  %23 = load i32, ptr %10, align 4
  store i32 %23, ptr %5, align 4
  store i32 1, ptr %13, align 4
  br label %46

24:                                               ; preds = %17
  %25 = load ptr, ptr %6, align 8
  %26 = load ptr, ptr %8, align 8
  %27 = load i32, ptr %9, align 4
  %28 = call i32 @uv__udp_set_membership4(ptr noundef %25, ptr noundef %11, ptr noundef %26, i32 noundef %27)
  store i32 %28, ptr %5, align 4
  store i32 1, ptr %13, align 4
  br label %46

29:                                               ; preds = %4
  %30 = load ptr, ptr %7, align 8
  %31 = call i32 @uv_ip6_addr(ptr noundef %30, i32 noundef 0, ptr noundef %12)
  %32 = icmp eq i32 %31, 0
  br i1 %32, label %33, label %45

33:                                               ; preds = %29
  %34 = load ptr, ptr %6, align 8
  %35 = call i32 @uv__udp_maybe_deferred_bind(ptr noundef %34, i32 noundef 10, i32 noundef 4)
  store i32 %35, ptr %10, align 4
  %36 = load i32, ptr %10, align 4
  %37 = icmp ne i32 %36, 0
  br i1 %37, label %38, label %40

38:                                               ; preds = %33
  %39 = load i32, ptr %10, align 4
  store i32 %39, ptr %5, align 4
  store i32 1, ptr %13, align 4
  br label %46

40:                                               ; preds = %33
  %41 = load ptr, ptr %6, align 8
  %42 = load ptr, ptr %8, align 8
  %43 = load i32, ptr %9, align 4
  %44 = call i32 @uv__udp_set_membership6(ptr noundef %41, ptr noundef %12, ptr noundef %42, i32 noundef %43)
  store i32 %44, ptr %5, align 4
  store i32 1, ptr %13, align 4
  br label %46

45:                                               ; preds = %29
  store i32 -22, ptr %5, align 4
  store i32 1, ptr %13, align 4
  br label %46

46:                                               ; preds = %45, %40, %38, %24, %22
  call void @llvm.lifetime.end.p0(i64 28, ptr %12) #10
  call void @llvm.lifetime.end.p0(i64 16, ptr %11) #10
  call void @llvm.lifetime.end.p0(i64 4, ptr %10) #10
  %47 = load i32, ptr %5, align 4
  ret i32 %47
}