; Function Attrs: nounwind uwtable
define dso_local i32 @uv_udp_set_membership(ptr noundef captures(none) %0, ptr noundef %1, ptr noundef %2, i32 noundef %3) local_unnamed_addr #0 {
  %5 = alloca %struct.ipv6_mreq, align 4
  %6 = alloca %struct.sockaddr_in6, align 4
  %7 = alloca %union.uv__sockaddr, align 4
  %8 = alloca %struct.ip_mreq, align 8
  %9 = alloca %union.uv__sockaddr, align 4
  %10 = alloca %struct.sockaddr_in, align 4
  %11 = alloca %struct.sockaddr_in6, align 4
  call void @llvm.lifetime.start.p0(i64 16, ptr nonnull %10) #10
  call void @llvm.lifetime.start.p0(i64 28, ptr nonnull %11) #10
  %12 = call i32 @uv_ip4_addr(ptr noundef %1, i32 noundef 0, ptr noundef nonnull %10) #10
  %13 = icmp eq i32 %12, 0
  br i1 %13, label %14, label %34

14:                                               ; preds = %4
  call void @llvm.lifetime.start.p0(i64 28, ptr nonnull %9) #10
  %15 = getelementptr inbounds nuw i8, ptr %0, i64 176
  %16 = load i32, ptr %15, align 8
  %.not.i = icmp eq i32 %16, -1
  br i1 %.not.i, label %uv__udp_maybe_deferred_bind.exit, label %uv__udp_maybe_deferred_bind.exit.thread

uv__udp_maybe_deferred_bind.exit.thread:          ; preds = %14
  call void @llvm.lifetime.end.p0(i64 28, ptr nonnull %9) #10
  br label %18

uv__udp_maybe_deferred_bind.exit:                 ; preds = %14
  call void @llvm.memset.p0.i64(ptr noundef nonnull align 4 dereferenceable(16) %9, i8 0, i64 16, i1 false)
  store i16 2, ptr %9, align 4
  %17 = call i32 @uv__udp_bind(ptr noundef nonnull %0, ptr noundef nonnull %9, i32 noundef 16, i32 noundef 4)
  call void @llvm.lifetime.end.p0(i64 28, ptr nonnull %9) #10
  %.not16 = icmp eq i32 %17, 0
  br i1 %.not16, label %18, label %59

18:                                               ; preds = %uv__udp_maybe_deferred_bind.exit.thread, %uv__udp_maybe_deferred_bind.exit
  call void @llvm.lifetime.start.p0(i64 8, ptr nonnull %8) #10
  store i64 0, ptr %8, align 8
  %.not.i17 = icmp eq ptr %2, null
  %19 = getelementptr inbounds nuw i8, ptr %8, i64 4
  br i1 %.not.i17, label %22, label %20

20:                                               ; preds = %18
  %21 = call i32 @uv_inet_pton(i32 noundef 2, ptr noundef nonnull %2, ptr noundef nonnull %19) #10
  %.not11.i = icmp eq i32 %21, 0
  br i1 %.not11.i, label %23, label %uv__udp_set_membership4.exit

22:                                               ; preds = %18
  store i32 0, ptr %19, align 4
  br label %23

23:                                               ; preds = %22, %20
  %24 = getelementptr inbounds nuw i8, ptr %10, i64 4
  %25 = load i32, ptr %24, align 4
  store i32 %25, ptr %8, align 8
  switch i32 %3, label %uv__udp_set_membership4.exit [
    i32 1, label %27
    i32 0, label %26
  ]

26:                                               ; preds = %23
  br label %27

27:                                               ; preds = %26, %23
  %.08.i = phi i32 [ 36, %26 ], [ 35, %23 ]
  %28 = load i32, ptr %15, align 8
  %29 = call i32 @setsockopt(i32 noundef %28, i32 noundef 0, i32 noundef %.08.i, ptr noundef nonnull %8, i32 noundef 8) #10
  %.not12.i = icmp eq i32 %29, 0
  br i1 %.not12.i, label %uv__udp_set_membership4.exit, label %30

30:                                               ; preds = %27
  %31 = tail call ptr @__errno_location() #11
  %32 = load i32, ptr %31, align 4
  %33 = sub nsw i32 0, %32
  br label %uv__udp_set_membership4.exit

uv__udp_set_membership4.exit:                     ; preds = %20, %23, %27, %30
  %.0.i18 = phi i32 [ %33, %30 ], [ %21, %20 ], [ -22, %23 ], [ 0, %27 ]
  call void @llvm.lifetime.end.p0(i64 8, ptr nonnull %8) #10
  br label %59

34:                                               ; preds = %4
  %35 = call i32 @uv_ip6_addr(ptr noundef %1, i32 noundef 0, ptr noundef nonnull %11) #10
  %36 = icmp eq i32 %35, 0
  br i1 %36, label %37, label %59

37:                                               ; preds = %34
  call void @llvm.lifetime.start.p0(i64 28, ptr nonnull %7) #10
  %38 = getelementptr inbounds nuw i8, ptr %0, i64 176
  %39 = load i32, ptr %38, align 8
  %.not.i19 = icmp eq i32 %39, -1
  br i1 %.not.i19, label %uv__udp_maybe_deferred_bind.exit21, label %uv__udp_maybe_deferred_bind.exit21.thread

uv__udp_maybe_deferred_bind.exit21.thread:        ; preds = %37
  call void @llvm.lifetime.end.p0(i64 28, ptr nonnull %7) #10
  br label %42

uv__udp_maybe_deferred_bind.exit21:               ; preds = %37
  call void @llvm.memset.p0.i64(ptr noundef nonnull align 4 dereferenceable(28) %7, i8 0, i64 28, i1 false)
  store i16 10, ptr %7, align 4
  %40 = getelementptr inbounds nuw i8, ptr %7, i64 8
  call void @llvm.memcpy.p0.p0.i64(ptr noundef nonnull align 4 dereferenceable(16) %40, ptr noundef nonnull align 4 dereferenceable(16) @in6addr_any, i64 16, i1 false)
  %41 = call i32 @uv__udp_bind(ptr noundef nonnull %0, ptr noundef nonnull %7, i32 noundef 28, i32 noundef 4)
  call void @llvm.lifetime.end.p0(i64 28, ptr nonnull %7) #10
  %.not = icmp eq i32 %41, 0
  br i1 %.not, label %42, label %59

42:                                               ; preds = %uv__udp_maybe_deferred_bind.exit21.thread, %uv__udp_maybe_deferred_bind.exit21
  call void @llvm.lifetime.start.p0(i64 20, ptr nonnull %5) #10
  call void @llvm.lifetime.start.p0(i64 28, ptr nonnull %6) #10
  %43 = getelementptr inbounds nuw i8, ptr %5, i64 16
  store i32 0, ptr %43, align 4
  %.not.i22 = icmp eq ptr %2, null
  br i1 %.not.i22, label %49, label %44

44:                                               ; preds = %42
  %45 = call i32 @uv_ip6_addr(ptr noundef nonnull %2, i32 noundef 0, ptr noundef nonnull %6) #10
  %.not8.i = icmp eq i32 %45, 0
  br i1 %.not8.i, label %46, label %uv__udp_set_membership6.exit

46:                                               ; preds = %44
  %47 = getelementptr inbounds nuw i8, ptr %6, i64 24
  %48 = load i32, ptr %47, align 4
  store i32 %48, ptr %43, align 4
  br label %49

49:                                               ; preds = %46, %42
  %50 = getelementptr inbounds nuw i8, ptr %11, i64 8
  call void @llvm.memcpy.p0.p0.i64(ptr noundef nonnull align 4 dereferenceable(16) %5, ptr noundef nonnull readonly align 4 dereferenceable(16) %50, i64 16, i1 false)
  switch i32 %3, label %uv__udp_set_membership6.exit [
    i32 1, label %52
    i32 0, label %51
  ]

51:                                               ; preds = %49
  br label %52

52:                                               ; preds = %51, %49
  %.0.i23 = phi i32 [ 21, %51 ], [ 20, %49 ]
  %53 = load i32, ptr %38, align 8
  %54 = call i32 @setsockopt(i32 noundef %53, i32 noundef 41, i32 noundef %.0.i23, ptr noundef nonnull %5, i32 noundef 20) #10
  %.not9.i = icmp eq i32 %54, 0
  br i1 %.not9.i, label %uv__udp_set_membership6.exit, label %55

55:                                               ; preds = %52
  %56 = tail call ptr @__errno_location() #11
  %57 = load i32, ptr %56, align 4
  %58 = sub nsw i32 0, %57
  br label %uv__udp_set_membership6.exit

uv__udp_set_membership6.exit:                     ; preds = %44, %49, %52, %55
  %.06.i = phi i32 [ %58, %55 ], [ -22, %44 ], [ -22, %49 ], [ 0, %52 ]
  call void @llvm.lifetime.end.p0(i64 28, ptr nonnull %6) #10
  call void @llvm.lifetime.end.p0(i64 20, ptr nonnull %5) #10
  br label %59

59:                                               ; preds = %34, %uv__udp_maybe_deferred_bind.exit21, %uv__udp_maybe_deferred_bind.exit, %uv__udp_set_membership6.exit, %uv__udp_set_membership4.exit
  %.0 = phi i32 [ %.0.i18, %uv__udp_set_membership4.exit ], [ %.06.i, %uv__udp_set_membership6.exit ], [ %17, %uv__udp_maybe_deferred_bind.exit ], [ %41, %uv__udp_maybe_deferred_bind.exit21 ], [ -22, %34 ]
  call void @llvm.lifetime.end.p0(i64 28, ptr nonnull %11) #10
  call void @llvm.lifetime.end.p0(i64 16, ptr nonnull %10) #10
  ret i32 %.0
}